; Function Attrs: mustprogress uwtable
define noundef range(i32 0, 3) i32 @_Z27tsi_local_handshaker_createPP14tsi_handshaker(ptr noundef writeonly %0) local_unnamed_addr #3 personality ptr @__gxx_personality_v0 {
  %2 = alloca %"class.absl::lts_20240722::log_internal::LogMessage", align 8
  %3 = icmp eq ptr %0, null
  br i1 %3, label %4, label %7

4:                                                ; preds = %1
  call void @llvm.lifetime.start.p0(i64 16, ptr nonnull %2) #11
  call void @_ZN4absl12lts_2024072212log_internal10LogMessageC1EPKciNS2_8ErrorTagE(ptr noundef nonnull align 8 dereferenceable(16) %2, ptr noundef nonnull @.str, i32 noundef 166) #12
  invoke void @_ZN4absl12lts_2024072212log_internal10LogMessage19CopyToEncodedBufferILNS2_10StringTypeE0EEEvSt17basic_string_viewIcSt11char_traitsIcEE(ptr noundef nonnull align 8 dereferenceable(16) %2, i64 50, ptr nonnull @.str.1)
          to label %_ZN4absl12lts_2024072212log_internal10LogMessagelsILi51EEERS2_RAT__Kc.exit unwind label %5

_ZN4absl12lts_2024072212log_internal10LogMessagelsILi51EEERS2_RAT__Kc.exit: ; preds = %4
  call void @_ZN4absl12lts_2024072212log_internal10LogMessageD1Ev(ptr noundef nonnull align 8 dereferenceable(16) %2) #13
  call void @llvm.lifetime.end.p0(i64 16, ptr nonnull %2) #11
  br label %9

5:                                                ; preds = %4
  %6 = landingpad { ptr, i32 }
          cleanup
  call void @_ZN4absl12lts_2024072212log_internal10LogMessageD1Ev(ptr noundef nonnull align 8 dereferenceable(16) %2) #13
  call void @llvm.lifetime.end.p0(i64 16, ptr nonnull %2) #11
  resume { ptr, i32 } %6

7:                                                ; preds = %1
  %8 = tail call noundef ptr @gpr_zalloc(i64 noundef 16)
  store ptr @_ZN12_GLOBAL__N_117handshaker_vtableE, ptr %8, align 8, !tbaa !3
  store ptr %8, ptr %0, align 8, !tbaa !11
  br label %9

9:                                                ; preds = %7, %_ZN4absl12lts_2024072212log_internal10LogMessagelsILi51EEERS2_RAT__Kc.exit
  %.0 = phi i32 [ 2, %_ZN4absl12lts_2024072212log_internal10LogMessagelsILi51EEERS2_RAT__Kc.exit ], [ 0, %7 ]
  ret i32 %.0
}